; Function Attrs: mustprogress uwtable
define i32 @uhash_hashIChars_77(ptr %0) local_unnamed_addr #0 {
  %2 = icmp eq ptr %0, null
  br i1 %2, label %7, label %3

3:                                                ; preds = %1
  %4 = tail call i64 @strlen(ptr noundef nonnull dereferenceable(1) %0) #15
  %5 = trunc i64 %4 to i32
  %6 = tail call i32 @ustr_hashICharsN_77(ptr noundef nonnull %0, i32 noundef %5)
  br label %7

7:                                                ; preds = %1, %3
  %8 = phi i32 [ %6, %3 ], [ 0, %1 ]
  ret i32 %8
}